; Function Attrs: nounwind sspstrong uwtable
define hidden i64 @rb_RSTRUCT_LEN(i64 noundef %0) local_unnamed_addr #0 {
  %2 = tail call i64 @rb_struct_size(i64 noundef %0) #5
  %3 = and i64 %2, 1
  %.not.i.i = icmp eq i64 %3, 0
  br i1 %.not.i.i, label %6, label %4

4:                                                ; preds = %1
  %5 = ashr i64 %2, 1
  br label %RSTRUCT_LEN.exit

6:                                                ; preds = %1
  %7 = tail call i64 @rb_num2long(i64 noundef %2) #5
  br label %RSTRUCT_LEN.exit

RSTRUCT_LEN.exit:                                 ; preds = %4, %6
  %.0.i.i = phi i64 [ %5, %4 ], [ %7, %6 ]
  ret i64 %.0.i.i
}